target datalayout = "e-m:e-p270:32:32-p271:32:32-p272:64:64-i64:64-i128:128-f80:128-n8:16:32:64-S128"
target triple = "x86_64-pc-linux-gnu"

%struct.RArray = type { %struct.RBasic, %union.anon }
%struct.RBasic = type { i64, i64 }
%union.anon = type { %struct.anon }
%struct.anon = type { i64, %union.anon.0, ptr }
%union.anon.0 = type { i64 }
%struct.minmax_by_t = type { i64, i64, i64, i64, i64, i64 }

@.str.78 = private unnamed_addr constant [39 x i8] c"../include/ruby/internal/core/rarray.h\00", align 1

; Function Attrs: inlinehint nounwind sspstrong willreturn memory(read) uwtable
define internal i64 @RB_FL_TEST_RAW(i64 noundef %0, i64 noundef %1) #5 {
  %3 = alloca i64, align 8
  %4 = alloca i64, align 8
  store i64 %0, ptr %3, align 8, !tbaa !14
  store i64 %1, ptr %4, align 8, !tbaa !14
  %5 = load i64, ptr %3, align 8, !tbaa !14
  %6 = inttoptr i64 %5 to ptr
  %7 = getelementptr inbounds nuw %struct.RBasic, ptr %6, i32 0, i32 0
  %8 = load i64, ptr %7, align 8, !tbaa !88
  %9 = load i64, ptr %4, align 8, !tbaa !14
  %10 = and i64 %8, %9
  ret i64 %10
}

; Function Attrs: inlinehint nounwind sspstrong willreturn memory(read) uwtable
define internal zeroext i1 @RB_FL_ANY_RAW(i64 noundef %0, i64 noundef %1) #5 {
  %3 = alloca i64, align 8
  %4 = alloca i64, align 8
  store i64 %0, ptr %3, align 8, !tbaa !14
  store i64 %1, ptr %4, align 8, !tbaa !14
  %5 = load i64, ptr %3, align 8, !tbaa !14
  %6 = load i64, ptr %4, align 8, !tbaa !14
  %7 = call i64 @RB_FL_TEST_RAW(i64 noundef %5, i64 noundef %6) #24
  %8 = icmp ne i64 %7, 0
  ret i1 %8
}

; Function Attrs: inlinehint nounwind sspstrong willreturn memory(read) uwtable
define internal ptr @rb_array_const_ptr(i64 noundef %0) #5 {
  %2 = alloca ptr, align 8
  %3 = alloca i64, align 8
  store i64 %0, ptr %3, align 8, !tbaa !14
  %4 = load i64, ptr %3, align 8, !tbaa !14
  %5 = call zeroext i1 @RB_FL_ANY_RAW(i64 noundef %4, i64 noundef 8192) #24
  br i1 %5, label %6, label %11

6:                                                ; preds = %1
  %7 = load i64, ptr %3, align 8, !tbaa !14
  %8 = inttoptr i64 %7 to ptr
  %9 = getelementptr inbounds nuw %struct.RArray, ptr %8, i32 0, i32 1
  %10 = getelementptr inbounds [1 x i64], ptr %9, i64 0, i64 0
  store ptr %10, ptr %2, align 8
  br label %17

11:                                               ; preds = %1
  %12 = load i64, ptr %3, align 8, !tbaa !14
  %13 = inttoptr i64 %12 to ptr
  %14 = getelementptr inbounds nuw %struct.RArray, ptr %13, i32 0, i32 1
  %15 = getelementptr inbounds nuw %struct.anon, ptr %14, i32 0, i32 2
  %16 = load ptr, ptr %15, align 8, !tbaa !31
  store ptr %16, ptr %2, align 8
  br label %17

17:                                               ; preds = %11, %6
  %18 = load ptr, ptr %2, align 8
  ret ptr %18
}

; Function Attrs: inlinehint nounwind sspstrong uwtable
define internal i64 @rb_obj_wb_unprotect(i64 noundef %0, ptr noundef %1, i32 noundef %2) #3 {
  %4 = alloca i64, align 8
  %5 = alloca ptr, align 8
  %6 = alloca i32, align 4
  store i64 %0, ptr %4, align 8, !tbaa !14
  store ptr %1, ptr %5, align 8, !tbaa !86
  store i32 %2, ptr %6, align 4, !tbaa !7
  %7 = load i64, ptr %4, align 8, !tbaa !14
  call void @rb_gc_writebarrier_unprotect(i64 noundef %7)
  %8 = load i64, ptr %4, align 8, !tbaa !14
  ret i64 %8
}

; Function Attrs: inlinehint nounwind sspstrong willreturn memory(none) uwtable
define internal zeroext i1 @RB_UNDEF_P(i64 noundef %0) #6 {
  %2 = alloca i64, align 8
  store i64 %0, ptr %2, align 8, !tbaa !14
  %3 = load i64, ptr %2, align 8, !tbaa !14
  %4 = icmp eq i64 %3, 36
  ret i1 %4
}

; Function Attrs: inlinehint nounwind sspstrong uwtable
define internal ptr @RARRAY_PTR(i64 noundef %0) #3 {
  %2 = alloca i64, align 8
  %3 = alloca i64, align 8
  store i64 %0, ptr %2, align 8, !tbaa !14
  call void @llvm.lifetime.start.p0(i64 8, ptr %3) #22
  %4 = load i64, ptr %2, align 8, !tbaa !14
  %5 = call i64 @rb_obj_wb_unprotect(i64 noundef %4, ptr noundef @.str.78, i32 noundef 370)
  store i64 %5, ptr %3, align 8, !tbaa !14
  %6 = load i64, ptr %3, align 8, !tbaa !14
  %7 = call ptr @rb_array_const_ptr(i64 noundef %6) #24
  call void @llvm.lifetime.end.p0(i64 8, ptr %3) #22
  ret ptr %7
}

; Function Attrs: nounwind sspstrong uwtable
define internal i64 @enum_minmax_by(i64 noundef %0) #0 {
  %2 = alloca i64, align 8
  %3 = alloca i64, align 8
  %4 = alloca i64, align 8
  %5 = alloca ptr, align 8
  %6 = alloca i64, align 8
  %7 = alloca i32, align 4
  store i64 %0, ptr %3, align 8, !tbaa !14
  call void @llvm.lifetime.start.p0(i64 8, ptr %4) #22
  call void @llvm.lifetime.start.p0(i64 8, ptr %5) #22
  %8 = call i64 @rb_ary_hidden_new_fill(i64 noundef 6)
  store i64 %8, ptr %4, align 8, !tbaa !14
  %9 = load i64, ptr %4, align 8, !tbaa !14
  %10 = call ptr @RARRAY_PTR(i64 noundef %9)
  store ptr %10, ptr %5, align 8, !tbaa !63
  br label %11

11:                                               ; preds = %1
  %12 = call i32 @rb_block_given_p()
  %13 = icmp ne i32 %12, 0
  br i1 %13, label %20, label %14

14:                                               ; preds = %11
  %15 = load i64, ptr %3, align 8, !tbaa !14
  %16 = call i64 @rb_frame_this_func()
  %17 = call i64 @rb_id2sym(i64 noundef %16)
  store i64 %17, ptr %6, align 8, !tbaa !14
  %18 = load i64, ptr %6, align 8, !tbaa !14
  %19 = call i64 @rb_enumeratorize_with_size(i64 noundef %15, i64 noundef %18, i32 noundef 0, ptr noundef null, ptr noundef @enum_size)
  store i64 %19, ptr %2, align 8
  store i32 1, ptr %7, align 4
  br label %66

20:                                               ; preds = %11
  br label %21

21:                                               ; preds = %20
  br label %22

22:                                               ; preds = %21
  %23 = load ptr, ptr %5, align 8, !tbaa !63
  %24 = getelementptr inbounds nuw %struct.minmax_by_t, ptr %23, i32 0, i32 0
  store i64 36, ptr %24, align 8, !tbaa !65
  %25 = load ptr, ptr %5, align 8, !tbaa !63
  %26 = getelementptr inbounds nuw %struct.minmax_by_t, ptr %25, i32 0, i32 1
  store i64 36, ptr %26, align 8, !tbaa !67
  %27 = load ptr, ptr %5, align 8, !tbaa !63
  %28 = getelementptr inbounds nuw %struct.minmax_by_t, ptr %27, i32 0, i32 2
  store i64 4, ptr %28, align 8, !tbaa !68
  %29 = load ptr, ptr %5, align 8, !tbaa !63
  %30 = getelementptr inbounds nuw %struct.minmax_by_t, ptr %29, i32 0, i32 3
  store i64 4, ptr %30, align 8, !tbaa !69
  %31 = load ptr, ptr %5, align 8, !tbaa !63
  %32 = getelementptr inbounds nuw %struct.minmax_by_t, ptr %31, i32 0, i32 4
  store i64 36, ptr %32, align 8, !tbaa !70
  %33 = load ptr, ptr %5, align 8, !tbaa !63
  %34 = getelementptr inbounds nuw %struct.minmax_by_t, ptr %33, i32 0, i32 5
  store i64 36, ptr %34, align 8, !tbaa !71
  %35 = load i64, ptr %3, align 8, !tbaa !14
  %36 = load i64, ptr %4, align 8, !tbaa !14
  %37 = call i64 @rb_block_call(i64 noundef %35, i64 noundef 3073, i32 noundef 0, ptr noundef null, ptr noundef @minmax_by_i, i64 noundef %36)
  %38 = load ptr, ptr %5, align 8, !tbaa !63
  %39 = getelementptr inbounds nuw %struct.minmax_by_t, ptr %38, i32 0, i32 4
  %40 = load i64, ptr %39, align 8, !tbaa !70
  %41 = call zeroext i1 @RB_UNDEF_P(i64 noundef %40) #25
  br i1 %41, label %56, label %42

42:                                               ; preds = %22
  %43 = load ptr, ptr %5, align 8, !tbaa !63
  %44 = getelementptr inbounds nuw %struct.minmax_by_t, ptr %43, i32 0, i32 4
  %45 = load i64, ptr %44, align 8, !tbaa !70
  %46 = load ptr, ptr %5, align 8, !tbaa !63
  %47 = getelementptr inbounds nuw %struct.minmax_by_t, ptr %46, i32 0, i32 4
  %48 = load i64, ptr %47, align 8, !tbaa !70
  %49 = load ptr, ptr %5, align 8, !tbaa !63
  %50 = getelementptr inbounds nuw %struct.minmax_by_t, ptr %49, i32 0, i32 5
  %51 = load i64, ptr %50, align 8, !tbaa !71
  %52 = load ptr, ptr %5, align 8, !tbaa !63
  %53 = getelementptr inbounds nuw %struct.minmax_by_t, ptr %52, i32 0, i32 5
  %54 = load i64, ptr %53, align 8, !tbaa !71
  %55 = load ptr, ptr %5, align 8, !tbaa !63
  call void @minmax_by_i_update(i64 noundef %45, i64 noundef %48, i64 noundef %51, i64 noundef %54, ptr noundef %55)
  br label %56

56:                                               ; preds = %42, %22
  %57 = load i64, ptr %4, align 8, !tbaa !14
  %58 = call ptr @RARRAY_PTR(i64 noundef %57)
  store ptr %58, ptr %5, align 8, !tbaa !63
  %59 = load ptr, ptr %5, align 8, !tbaa !63
  %60 = getelementptr inbounds nuw %struct.minmax_by_t, ptr %59, i32 0, i32 2
  %61 = load i64, ptr %60, align 8, !tbaa !68
  %62 = load ptr, ptr %5, align 8, !tbaa !63
  %63 = getelementptr inbounds nuw %struct.minmax_by_t, ptr %62, i32 0, i32 3
  %64 = load i64, ptr %63, align 8, !tbaa !69
  %65 = call i64 @rb_assoc_new(i64 noundef %61, i64 noundef %64)
  store i64 %65, ptr %2, align 8
  store i32 1, ptr %7, align 4
  br label %66

66:                                               ; preds = %56, %14
  call void @llvm.lifetime.end.p0(i64 8, ptr %5) #22
  call void @llvm.lifetime.end.p0(i64 8, ptr %4) #22
  %67 = load i64, ptr %2, align 8
  ret i64 %67
}