; Function Attrs: nounwind sspstrong uwtable
define internal i64 @enum_minmax_by(i64 noundef %0) #0 {
  %2 = tail call i64 @rb_ary_hidden_new_fill(i64 noundef 6) #14
  tail call void @rb_gc_writebarrier_unprotect(i64 noundef %2) #14
  %3 = inttoptr i64 %2 to ptr
  %4 = load i64, ptr %3, align 8, !tbaa !20
  %5 = and i64 %4, 8192
  %.not.i.i = icmp eq i64 %5, 0
  br i1 %.not.i.i, label %8, label %6

6:                                                ; preds = %1
  %7 = getelementptr inbounds nuw i8, ptr %3, i64 16
  br label %RARRAY_PTR.exit

8:                                                ; preds = %1
  %9 = getelementptr inbounds nuw i8, ptr %3, i64 32
  %10 = load ptr, ptr %9, align 8, !tbaa !22
  br label %RARRAY_PTR.exit

RARRAY_PTR.exit:                                  ; preds = %6, %8
  %.0.i.i = phi ptr [ %7, %6 ], [ %10, %8 ]
  %11 = tail call i32 @rb_block_given_p() #14
  %.not = icmp eq i32 %11, 0
  br i1 %.not, label %12, label %16

12:                                               ; preds = %RARRAY_PTR.exit
  %13 = tail call i64 @rb_frame_this_func() #14
  %14 = tail call i64 @rb_id2sym(i64 noundef %13) #14
  %15 = tail call i64 @rb_enumeratorize_with_size(i64 noundef %0, i64 noundef %14, i32 noundef 0, ptr noundef null, ptr noundef nonnull @enum_size) #14
  br label %40

16:                                               ; preds = %RARRAY_PTR.exit
  store i64 36, ptr %.0.i.i, align 8, !tbaa !79
  %17 = getelementptr inbounds nuw i8, ptr %.0.i.i, i64 8
  store i64 36, ptr %17, align 8, !tbaa !81
  %18 = getelementptr inbounds nuw i8, ptr %.0.i.i, i64 16
  store i64 4, ptr %18, align 8, !tbaa !82
  %19 = getelementptr inbounds nuw i8, ptr %.0.i.i, i64 24
  store i64 4, ptr %19, align 8, !tbaa !83
  %20 = getelementptr inbounds nuw i8, ptr %.0.i.i, i64 32
  store i64 36, ptr %20, align 8, !tbaa !84
  %21 = getelementptr inbounds nuw i8, ptr %.0.i.i, i64 40
  store i64 36, ptr %21, align 8, !tbaa !85
  %22 = tail call i64 @rb_block_call(i64 noundef %0, i64 noundef 3073, i32 noundef 0, ptr noundef null, ptr noundef nonnull @minmax_by_i, i64 noundef %2) #14
  %23 = load i64, ptr %20, align 8, !tbaa !84
  %24 = icmp eq i64 %23, 36
  br i1 %24, label %27, label %25

25:                                               ; preds = %16
  %26 = load i64, ptr %21, align 8, !tbaa !85
  tail call fastcc void @minmax_by_i_update(i64 noundef %23, i64 noundef %23, i64 noundef %26, i64 noundef %26, ptr noundef nonnull %.0.i.i)
  br label %27

27:                                               ; preds = %25, %16
  tail call void @rb_gc_writebarrier_unprotect(i64 noundef %2) #14
  %28 = load i64, ptr %3, align 8, !tbaa !20
  %29 = and i64 %28, 8192
  %.not.i.i20 = icmp eq i64 %29, 0
  br i1 %.not.i.i20, label %32, label %30

30:                                               ; preds = %27
  %31 = getelementptr inbounds nuw i8, ptr %3, i64 16
  br label %RARRAY_PTR.exit22

32:                                               ; preds = %27
  %33 = getelementptr inbounds nuw i8, ptr %3, i64 32
  %34 = load ptr, ptr %33, align 8, !tbaa !22
  br label %RARRAY_PTR.exit22

RARRAY_PTR.exit22:                                ; preds = %30, %32
  %.0.i.i21 = phi ptr [ %31, %30 ], [ %34, %32 ]
  %35 = getelementptr inbounds nuw i8, ptr %.0.i.i21, i64 16
  %36 = load i64, ptr %35, align 8, !tbaa !82
  %37 = getelementptr inbounds nuw i8, ptr %.0.i.i21, i64 24
  %38 = load i64, ptr %37, align 8, !tbaa !83
  %39 = tail call i64 @rb_assoc_new(i64 noundef %36, i64 noundef %38) #14
  br label %40

40:                                               ; preds = %RARRAY_PTR.exit22, %12
  %.0 = phi i64 [ %39, %RARRAY_PTR.exit22 ], [ %15, %12 ]
  ret i64 %.0
}